; Function Attrs: mustprogress nofree norecurse nosync nounwind willreturn memory(read, inaccessiblemem: none) uwtable
define dso_local { ptr, i64 } @_ZNK4llvm19MachineTraceMetrics8Ensemble22getProcResourceHeightsEj(ptr noundef nonnull readonly align 8 captures(none) dereferenceable(440) %0, i32 noundef %1) local_unnamed_addr #5 align 2 {
  %3 = getelementptr inbounds nuw i8, ptr %0, i64 432
  %4 = load ptr, ptr %3, align 8
  %5 = getelementptr inbounds nuw i8, ptr %4, i64 144
  %6 = load i32, ptr %5, align 8
  %7 = getelementptr inbounds nuw i8, ptr %0, i64 416
  %8 = load ptr, ptr %7, align 8
  %9 = mul i32 %6, %1
  %10 = zext i32 %9 to i64
  %11 = getelementptr inbounds nuw i32, ptr %8, i64 %10
  %12 = zext i32 %6 to i64
  %.fca.0.insert = insertvalue { ptr, i64 } poison, ptr %11, 0
  %.fca.1.insert = insertvalue { ptr, i64 } %.fca.0.insert, i64 %12, 1
  ret { ptr, i64 } %.fca.1.insert
}